; Function Attrs: nounwind uwtable
define hidden void @uv__work_done(ptr noundef %0) local_unnamed_addr #0 {
  %2 = alloca %struct.uv__queue, align 8
  call void @llvm.lifetime.start.p0(i64 16, ptr nonnull %2) #9
  %3 = getelementptr inbounds i8, ptr %0, i64 -40
  tail call void @uv_mutex_lock(ptr noundef nonnull %3) #9
  %4 = getelementptr inbounds i8, ptr %0, i64 -56
  %5 = load ptr, ptr %4, align 8
  %.not.i = icmp eq ptr %4, %5
  br i1 %.not.i, label %6, label %8

6:                                                ; preds = %1
  store ptr %2, ptr %2, align 8
  %7 = getelementptr inbounds nuw i8, ptr %2, i64 8
  store ptr %2, ptr %7, align 8
  br label %uv__queue_move.exit

8:                                                ; preds = %1
  %9 = getelementptr inbounds i8, ptr %0, i64 -48
  %10 = load ptr, ptr %9, align 8
  %11 = getelementptr inbounds nuw i8, ptr %2, i64 8
  store ptr %10, ptr %11, align 8
  store ptr %2, ptr %10, align 8
  store ptr %5, ptr %2, align 8
  %12 = getelementptr inbounds nuw i8, ptr %5, i64 8
  %13 = load ptr, ptr %12, align 8
  store ptr %13, ptr %9, align 8
  store ptr %4, ptr %13, align 8
  store ptr %2, ptr %12, align 8
  br label %uv__queue_move.exit

uv__queue_move.exit:                              ; preds = %6, %8
  call void @uv_mutex_unlock(ptr noundef nonnull %3) #9
  %14 = load ptr, ptr %2, align 8
  %.not16 = icmp eq ptr %2, %14
  br i1 %.not16, label %._crit_edge.thread, label %.lr.ph

.lr.ph:                                           ; preds = %uv__queue_move.exit, %.lr.ph
  %15 = phi ptr [ %28, %.lr.ph ], [ %14, %uv__queue_move.exit ]
  %.017 = phi i32 [ %27, %.lr.ph ], [ 0, %uv__queue_move.exit ]
  %16 = load ptr, ptr %15, align 8
  %17 = getelementptr inbounds nuw i8, ptr %15, i64 8
  %18 = load ptr, ptr %17, align 8
  store ptr %16, ptr %18, align 8
  %19 = load ptr, ptr %17, align 8
  %20 = getelementptr inbounds nuw i8, ptr %16, i64 8
  store ptr %19, ptr %20, align 8
  %21 = getelementptr inbounds i8, ptr %15, i64 -24
  %22 = load ptr, ptr %21, align 8
  %23 = icmp eq ptr %22, @uv__cancelled
  %24 = select i1 %23, i32 -125, i32 0
  %25 = getelementptr inbounds i8, ptr %15, i64 -16
  %26 = load ptr, ptr %25, align 8
  call void %26(ptr noundef nonnull %21, i32 noundef %24) #9
  %27 = add nuw nsw i32 %.017, 1
  %28 = load ptr, ptr %2, align 8
  %.not = icmp eq ptr %2, %28
  br i1 %.not, label %._crit_edge, label %.lr.ph

._crit_edge:                                      ; preds = %.lr.ph
  %.not19 = icmp eq i32 %.017, 0
  br i1 %.not19, label %._crit_edge.thread, label %29

29:                                               ; preds = %._crit_edge
  %30 = zext nneg i32 %.017 to i64
  %31 = getelementptr inbounds i8, ptr %0, i64 -136
  %32 = load ptr, ptr %31, align 8
  %33 = getelementptr inbounds nuw i8, ptr %32, i64 16
  %34 = load i64, ptr %33, align 8
  %35 = add i64 %34, %30
  store i64 %35, ptr %33, align 8
  %36 = load ptr, ptr %31, align 8
  %37 = getelementptr inbounds nuw i8, ptr %36, i64 192
  %38 = load i32, ptr %37, align 8
  %39 = icmp eq i32 %38, 0
  br i1 %39, label %40, label %._crit_edge.thread

40:                                               ; preds = %29
  %41 = getelementptr inbounds nuw i8, ptr %36, i64 24
  %42 = load i64, ptr %41, align 8
  %43 = add i64 %42, %30
  store i64 %43, ptr %41, align 8
  br label %._crit_edge.thread

._crit_edge.thread:                               ; preds = %uv__queue_move.exit, %29, %40, %._crit_edge
  call void @llvm.lifetime.end.p0(i64 16, ptr nonnull %2) #9
  ret void
}